target datalayout = "e-m:e-p270:32:32-p271:32:32-p272:64:64-i64:64-i128:128-f80:128-n8:16:32:64-S128"
target triple = "x86_64-pc-linux-gnu"

%struct._zend_refcounted_h = type { i32, %union.anon }
%union.anon = type { i32 }
%struct._zend_string = type { %struct._zend_refcounted_h, i64, i64, [1 x i8] }

; Function Attrs: nounwind uwtable
define internal i32 @OnChangeMailForceExtra(ptr noundef %0, ptr noundef %1, ptr noundef %2, ptr noundef %3, ptr noundef %4, i32 noundef %5) #1 {
  %7 = alloca i32, align 4
  %8 = alloca ptr, align 8
  %9 = alloca ptr, align 8
  %10 = alloca ptr, align 8
  %11 = alloca ptr, align 8
  %12 = alloca ptr, align 8
  %13 = alloca i32, align 4
  store ptr %0, ptr %8, align 8, !tbaa !243
  store ptr %1, ptr %9, align 8, !tbaa !54
  store ptr %2, ptr %10, align 8, !tbaa !56
  store ptr %3, ptr %11, align 8, !tbaa !56
  store ptr %4, ptr %12, align 8, !tbaa !56
  store i32 %5, ptr %13, align 4, !tbaa !50
  %14 = load ptr, ptr %9, align 8, !tbaa !54
  %15 = icmp ne ptr %14, null
  br i1 %15, label %16, label %26

16:                                               ; preds = %6
  %17 = load ptr, ptr %9, align 8, !tbaa !54
  %18 = getelementptr inbounds nuw %struct._zend_string, ptr %17, i32 0, i32 2
  %19 = load i64, ptr %18, align 8, !tbaa !60
  %20 = load ptr, ptr %9, align 8, !tbaa !54
  %21 = getelementptr inbounds nuw %struct._zend_string, ptr %20, i32 0, i32 3
  %22 = getelementptr inbounds [1 x i8], ptr %21, i64 0, i64 0
  %23 = call i64 @strlen(ptr noundef %22) #19
  %24 = icmp ne i64 %19, %23
  br i1 %24, label %25, label %26

25:                                               ; preds = %16
  store i32 -1, ptr %7, align 4
  br label %31

26:                                               ; preds = %16, %6
  %27 = load i32, ptr %13, align 4, !tbaa !50
  %28 = icmp eq i32 %27, 32
  br i1 %28, label %29, label %30

29:                                               ; preds = %26
  store i32 -1, ptr %7, align 4
  br label %31

30:                                               ; preds = %26
  store i32 0, ptr %7, align 4
  br label %31

31:                                               ; preds = %30, %29, %25
  %32 = load i32, ptr %7, align 4
  ret i32 %32
}