; Function Attrs: mustprogress nofree nounwind willreturn memory(argmem: read) uwtable
define internal range(i32 -1, 1) i32 @OnChangeMailForceExtra(ptr readnone captures(none) %0, ptr noundef readonly captures(address_is_null) %1, ptr readnone captures(none) %2, ptr readnone captures(none) %3, ptr readnone captures(none) %4, i32 noundef %5) #23 {
  %.not = icmp eq ptr %1, null
  br i1 %.not, label %12, label %7

7:                                                ; preds = %6
  %8 = getelementptr inbounds nuw i8, ptr %1, i64 16
  %9 = load i64, ptr %8, align 8, !tbaa !52
  %10 = getelementptr inbounds nuw i8, ptr %1, i64 24
  %11 = tail call i64 @strlen(ptr noundef nonnull dereferenceable(1) %10) #29
  %.not5 = icmp eq i64 %9, %11
  br i1 %.not5, label %12, label %14

12:                                               ; preds = %7, %6
  %13 = icmp eq i32 %5, 32
  %. = sext i1 %13 to i32
  br label %14

14:                                               ; preds = %12, %7
  %.0 = phi i32 [ -1, %7 ], [ %., %12 ]
  ret i32 %.0
}